target datalayout = "e-m:e-p270:32:32-p271:32:32-p272:64:64-i64:64-i128:128-f80:128-n8:16:32:64-S128"
target triple = "x86_64-pc-linux-gnu"

%struct.SN_env = type { ptr, i32, i32, i32, i32, i32, ptr, ptr }

@g_v = internal constant [4 x i8] c"\11A\10\01", align 1
@g_v_WXY = internal constant [5 x i8] c"\01\11A\D0\01", align 1

; Function Attrs: nounwind uwtable
define internal i32 @r_shortv(ptr noundef %0) #0 {
  %2 = alloca i32, align 4
  %3 = alloca ptr, align 8
  %4 = alloca i32, align 4
  %5 = alloca i32, align 4
  store ptr %0, ptr %3, align 8
  call void @llvm.lifetime.start.p0(i64 4, ptr %4) #3
  %6 = load ptr, ptr %3, align 8
  %7 = getelementptr inbounds nuw %struct.SN_env, ptr %6, i32 0, i32 2
  %8 = load i32, ptr %7, align 4
  %9 = load ptr, ptr %3, align 8
  %10 = getelementptr inbounds nuw %struct.SN_env, ptr %9, i32 0, i32 1
  %11 = load i32, ptr %10, align 8
  %12 = sub i32 %8, %11
  store i32 %12, ptr %4, align 4
  %13 = load ptr, ptr %3, align 8
  %14 = call i32 @out_grouping_b(ptr noundef %13, ptr noundef @g_v_WXY, i32 noundef 89, i32 noundef 121, i32 noundef 0)
  %15 = icmp ne i32 %14, 0
  br i1 %15, label %16, label %17

16:                                               ; preds = %1
  br label %28

17:                                               ; preds = %1
  %18 = load ptr, ptr %3, align 8
  %19 = call i32 @in_grouping_b(ptr noundef %18, ptr noundef @g_v, i32 noundef 97, i32 noundef 121, i32 noundef 0)
  %20 = icmp ne i32 %19, 0
  br i1 %20, label %21, label %22

21:                                               ; preds = %17
  br label %28

22:                                               ; preds = %17
  %23 = load ptr, ptr %3, align 8
  %24 = call i32 @out_grouping_b(ptr noundef %23, ptr noundef @g_v, i32 noundef 97, i32 noundef 121, i32 noundef 0)
  %25 = icmp ne i32 %24, 0
  br i1 %25, label %26, label %27

26:                                               ; preds = %22
  br label %28

27:                                               ; preds = %22
  store i32 3, ptr %5, align 4
  br label %55

28:                                               ; preds = %26, %21, %16
  %29 = load ptr, ptr %3, align 8
  %30 = getelementptr inbounds nuw %struct.SN_env, ptr %29, i32 0, i32 2
  %31 = load i32, ptr %30, align 4
  %32 = load i32, ptr %4, align 4
  %33 = sub i32 %31, %32
  %34 = load ptr, ptr %3, align 8
  %35 = getelementptr inbounds nuw %struct.SN_env, ptr %34, i32 0, i32 1
  store i32 %33, ptr %35, align 8
  %36 = load ptr, ptr %3, align 8
  %37 = call i32 @out_grouping_b(ptr noundef %36, ptr noundef @g_v, i32 noundef 97, i32 noundef 121, i32 noundef 0)
  %38 = icmp ne i32 %37, 0
  br i1 %38, label %39, label %40

39:                                               ; preds = %28
  store i32 0, ptr %2, align 4
  store i32 1, ptr %5, align 4
  br label %55

40:                                               ; preds = %28
  %41 = load ptr, ptr %3, align 8
  %42 = call i32 @in_grouping_b(ptr noundef %41, ptr noundef @g_v, i32 noundef 97, i32 noundef 121, i32 noundef 0)
  %43 = icmp ne i32 %42, 0
  br i1 %43, label %44, label %45

44:                                               ; preds = %40
  store i32 0, ptr %2, align 4
  store i32 1, ptr %5, align 4
  br label %55

45:                                               ; preds = %40
  %46 = load ptr, ptr %3, align 8
  %47 = getelementptr inbounds nuw %struct.SN_env, ptr %46, i32 0, i32 1
  %48 = load i32, ptr %47, align 8
  %49 = load ptr, ptr %3, align 8
  %50 = getelementptr inbounds nuw %struct.SN_env, ptr %49, i32 0, i32 3
  %51 = load i32, ptr %50, align 8
  %52 = icmp sgt i32 %48, %51
  br i1 %52, label %53, label %54

53:                                               ; preds = %45
  store i32 0, ptr %2, align 4
  store i32 1, ptr %5, align 4
  br label %55

54:                                               ; preds = %45
  store i32 0, ptr %5, align 4
  br label %55

55:                                               ; preds = %27, %54, %53, %44, %39
  call void @llvm.lifetime.end.p0(i64 4, ptr %4) #3
  %56 = load i32, ptr %5, align 4
  switch i32 %56, label %61 [
    i32 0, label %57
    i32 1, label %59
    i32 3, label %58
  ]

57:                                               ; preds = %55
  br label %58

58:                                               ; preds = %57, %55
  store i32 1, ptr %2, align 4
  br label %59

59:                                               ; preds = %58, %55
  %60 = load i32, ptr %2, align 4
  ret i32 %60

61:                                               ; preds = %55
  unreachable
}